; Function Attrs: mustprogress nofree nounwind willreturn memory(read, inaccessiblemem: none) uwtable
define hidden noundef zeroext i1 @_ZNK4llvh19FoldingSetNodeIDRefeqES0_(ptr nocapture noundef nonnull readonly align 8 dereferenceable(16) %this, ptr nocapture readonly %RHS.coerce0, i64 %RHS.coerce1) local_unnamed_addr #1 align 2 {
entry:
  %Size = getelementptr inbounds i8, ptr %this, i64 8
  %0 = load i64, ptr %Size, align 8
  %cmp.not = icmp eq i64 %0, %RHS.coerce1
  br i1 %cmp.not, label %if.end, label %return

if.end:                                           ; preds = %entry
  %1 = load ptr, ptr %this, align 8
  %mul = shl i64 %RHS.coerce1, 2
  %bcmp = tail call i32 @bcmp(ptr %1, ptr %RHS.coerce0, i64 %mul)
  %cmp5 = icmp eq i32 %bcmp, 0
  br label %return

return:                                           ; preds = %entry, %if.end
  %retval.0 = phi i1 [ %cmp5, %if.end ], [ false, %entry ]
  ret i1 %retval.0
}